; Function Attrs: mustprogress uwtable
define dso_local void @_ZN22cmGlobalNinjaGenerator14EnableLanguageERKSt6vectorINSt7__cxx1112basic_stringIcSt11char_traitsIcESaIcEEESaIS6_EEP10cmMakefileb(ptr noundef nonnull align 8 dereferenceable(2808) %0, ptr noundef nonnull align 8 dereferenceable(24) %1, ptr noundef %2, i1 noundef zeroext %3) unnamed_addr #3 align 2 personality ptr @__gxx_personality_v0 {
  %5 = alloca %"class.std::__cxx11::basic_string", align 8
  %6 = alloca %"class.std::allocator", align 1
  %7 = load ptr, ptr %0, align 8
  %8 = getelementptr inbounds i8, ptr %7, i64 320
  %9 = load ptr, ptr %8, align 8
  %10 = tail call noundef zeroext i1 %9(ptr noundef nonnull align 8 dereferenceable(1778) %0)
  br i1 %10, label %11, label %20

11:                                               ; preds = %4
  call void @_ZNSaIcEC1Ev(ptr noundef nonnull align 1 dereferenceable(1) %6) #23
  %12 = invoke noundef ptr @_ZNSt7__cxx1112basic_stringIcSt11char_traitsIcESaIcEE13_M_local_dataEv(ptr noundef nonnull align 8 dereferenceable(32) %5)
          to label %.noexc unwind label %16

.noexc:                                           ; preds = %11
  invoke void @_ZNSt7__cxx1112basic_stringIcSt11char_traitsIcESaIcEE12_Alloc_hiderC1EPcRKS3_(ptr noundef nonnull align 8 dereferenceable(8) %5, ptr noundef %12, ptr noundef nonnull align 1 dereferenceable(1) %6)
          to label %.noexc15 unwind label %16

.noexc15:                                         ; preds = %.noexc
  invoke void @_ZNSt7__cxx1112basic_stringIcSt11char_traitsIcESaIcEE12_M_constructIPKcEEvT_S8_St20forward_iterator_tag(ptr noundef nonnull align 8 dereferenceable(32) %5, ptr noundef nonnull @.str.88, ptr noundef nonnull getelementptr inbounds ([29 x i8], ptr @.str.88, i64 0, i64 28))
          to label %_ZNSt7__cxx1112basic_stringIcSt11char_traitsIcESaIcEEC2IS3_EEPKcRKS3_.exit unwind label %13

13:                                               ; preds = %.noexc15
  %14 = landingpad { ptr, i32 }
          cleanup
  call void @_ZNSaIcED2Ev(ptr noundef nonnull align 1 dereferenceable(1) %5) #23
  br label %.body

_ZNSt7__cxx1112basic_stringIcSt11char_traitsIcESaIcEEC2IS3_EEPKcRKS3_.exit: ; preds = %.noexc15
  invoke void @_ZN10cmMakefile29InitCMAKE_CONFIGURATION_TYPESERKNSt7__cxx1112basic_stringIcSt11char_traitsIcESaIcEEE(ptr noundef nonnull align 8 dereferenceable(3520) %2, ptr noundef nonnull align 8 dereferenceable(32) %5)
          to label %15 unwind label %18

15:                                               ; preds = %_ZNSt7__cxx1112basic_stringIcSt11char_traitsIcESaIcEEC2IS3_EEPKcRKS3_.exit
  call void @_ZNSt7__cxx1112basic_stringIcSt11char_traitsIcESaIcEED1Ev(ptr noundef nonnull align 8 dereferenceable(32) %5) #23
  call void @_ZNSaIcED1Ev(ptr noundef nonnull align 1 dereferenceable(1) %6) #23
  br label %20

16:                                               ; preds = %.noexc, %11
  %17 = landingpad { ptr, i32 }
          cleanup
  br label %.body

18:                                               ; preds = %_ZNSt7__cxx1112basic_stringIcSt11char_traitsIcESaIcEEC2IS3_EEPKcRKS3_.exit
  %19 = landingpad { ptr, i32 }
          cleanup
  call void @_ZNSt7__cxx1112basic_stringIcSt11char_traitsIcESaIcEED1Ev(ptr noundef nonnull align 8 dereferenceable(32) %5) #23
  br label %.body

.body:                                            ; preds = %16, %13, %18
  %.pn = phi { ptr, i32 } [ %19, %18 ], [ %17, %16 ], [ %14, %13 ]
  call void @_ZNSaIcED1Ev(ptr noundef nonnull align 1 dereferenceable(1) %6) #23
  resume { ptr, i32 } %.pn

20:                                               ; preds = %15, %4
  call void @_ZN17cmGlobalGenerator14EnableLanguageERKSt6vectorINSt7__cxx1112basic_stringIcSt11char_traitsIcESaIcEEESaIS6_EEP10cmMakefileb(ptr noundef nonnull align 8 dereferenceable(1778) %0, ptr noundef nonnull align 8 dereferenceable(24) %1, ptr noundef %2, i1 noundef zeroext %3)
  %21 = load ptr, ptr %1, align 8
  %22 = getelementptr inbounds i8, ptr %1, i64 8
  %23 = load ptr, ptr %22, align 8
  %.not19 = icmp eq ptr %21, %23
  br i1 %.not19, label %._crit_edge, label %.lr.ph

.lr.ph:                                           ; preds = %20, %27
  %.sroa.016.020 = phi ptr [ %28, %27 ], [ %21, %20 ]
  %24 = call noundef i32 @_ZNKSt7__cxx1112basic_stringIcSt11char_traitsIcESaIcEE7compareEPKc(ptr noundef nonnull align 8 dereferenceable(32) %.sroa.016.020, ptr noundef nonnull @.str.89) #23
  %25 = icmp eq i32 %24, 0
  br i1 %25, label %27, label %26

26:                                               ; preds = %.lr.ph
  call void @_ZNK17cmGlobalGenerator23ResolveLanguageCompilerERKNSt7__cxx1112basic_stringIcSt11char_traitsIcESaIcEEEP10cmMakefileb(ptr noundef nonnull align 8 dereferenceable(1778) %0, ptr noundef nonnull align 8 dereferenceable(32) %.sroa.016.020, ptr noundef %2, i1 noundef zeroext %3)
  br label %27

27:                                               ; preds = %.lr.ph, %26
  %28 = getelementptr inbounds i8, ptr %.sroa.016.020, i64 32
  %.not = icmp eq ptr %28, %23
  br i1 %.not, label %._crit_edge, label %.lr.ph

._crit_edge:                                      ; preds = %27, %20
  ret void
}